target datalayout = "e-m:e-p270:32:32-p271:32:32-p272:64:64-i64:64-i128:128-f80:128-n8:16:32:64-S128"
target triple = "x86_64-pc-linux-gnu"

%struct.FunctionCallInfoBaseData = type { ptr, ptr, ptr, i32, i8, i16, [0 x %struct.NullableDatum] }
%struct.NullableDatum = type { i64, i8 }
%struct.FmgrInfo = type { ptr, i32, i16, i8, i8, i8, ptr, ptr, ptr }
%struct.TypeCacheEntry = type { i32, i32, i16, i8, i8, i8, i8, i32, i32, i32, i32, i32, i32, i32, i32, i32, i32, i32, i32, i32, i32, %struct.FmgrInfo, %struct.FmgrInfo, %struct.FmgrInfo, %struct.FmgrInfo, ptr, i64, ptr, i32, i32, %struct.FmgrInfo, %struct.FmgrInfo, %struct.FmgrInfo, ptr, i32, i32, ptr, i32, ptr, ptr }
%struct.MultirangeType = type { i32, i32, i32 }

@.str.2 = private unnamed_addr constant [18 x i8] c"multirangetypes.c\00", align 1
@.str.9 = private unnamed_addr constant [33 x i8] c"type %u is not a multirange type\00", align 1
@__func__.multirange_get_typcache = private unnamed_addr constant [24 x i8] c"multirange_get_typcache\00", align 1

; Function Attrs: inlinehint nounwind uwtable
define internal i64 @PointerGetDatum(ptr noundef %0) #2 {
  %2 = alloca ptr, align 8
  store ptr %0, ptr %2, align 8
  %3 = load ptr, ptr %2, align 8
  %4 = ptrtoint ptr %3 to i64
  ret i64 %4
}

; Function Attrs: inlinehint nounwind uwtable
define internal ptr @DatumGetPointer(i64 noundef %0) #2 {
  %2 = alloca i64, align 8
  store i64 %0, ptr %2, align 8
  %3 = load i64, ptr %2, align 8
  %4 = inttoptr i64 %3 to ptr
  ret ptr %4
}

; Function Attrs: nounwind uwtable
define dso_local void @multirange_deserialize(ptr noundef %0, ptr noundef %1, ptr noundef %2, ptr noundef %3) #0 {
  %5 = alloca ptr, align 8
  %6 = alloca ptr, align 8
  %7 = alloca ptr, align 8
  %8 = alloca ptr, align 8
  %9 = alloca i32, align 4
  store ptr %0, ptr %5, align 8
  store ptr %1, ptr %6, align 8
  store ptr %2, ptr %7, align 8
  store ptr %3, ptr %8, align 8
  %10 = load ptr, ptr %6, align 8
  %11 = getelementptr inbounds nuw %struct.MultirangeType, ptr %10, i32 0, i32 2
  %12 = load i32, ptr %11, align 4
  %13 = load ptr, ptr %7, align 8
  store i32 %12, ptr %13, align 4
  %14 = load ptr, ptr %7, align 8
  %15 = load i32, ptr %14, align 4
  %16 = icmp sgt i32 %15, 0
  br i1 %16, label %17, label %43

17:                                               ; preds = %4
  call void @llvm.lifetime.start.p0(i64 4, ptr %9) #9
  %18 = load ptr, ptr %7, align 8
  %19 = load i32, ptr %18, align 4
  %20 = sext i32 %19 to i64
  %21 = mul i64 %20, 8
  %22 = call ptr @palloc(i64 noundef %21)
  %23 = load ptr, ptr %8, align 8
  store ptr %22, ptr %23, align 8
  store i32 0, ptr %9, align 4
  br label %24

24:                                               ; preds = %39, %17
  %25 = load i32, ptr %9, align 4
  %26 = load ptr, ptr %7, align 8
  %27 = load i32, ptr %26, align 4
  %28 = icmp slt i32 %25, %27
  br i1 %28, label %29, label %42

29:                                               ; preds = %24
  %30 = load ptr, ptr %5, align 8
  %31 = load ptr, ptr %6, align 8
  %32 = load i32, ptr %9, align 4
  %33 = call ptr @multirange_get_range(ptr noundef %30, ptr noundef %31, i32 noundef %32)
  %34 = load ptr, ptr %8, align 8
  %35 = load ptr, ptr %34, align 8
  %36 = load i32, ptr %9, align 4
  %37 = sext i32 %36 to i64
  %38 = getelementptr inbounds ptr, ptr %35, i64 %37
  store ptr %33, ptr %38, align 8
  br label %39

39:                                               ; preds = %29
  %40 = load i32, ptr %9, align 4
  %41 = add i32 %40, 1
  store i32 %41, ptr %9, align 4
  br label %24, !llvm.loop !9

42:                                               ; preds = %24
  call void @llvm.lifetime.end.p0(i64 4, ptr %9) #9
  br label %45

43:                                               ; preds = %4
  %44 = load ptr, ptr %8, align 8
  store ptr null, ptr %44, align 8
  br label %45

45:                                               ; preds = %43, %42
  ret void
}

; Function Attrs: nounwind uwtable
define dso_local ptr @multirange_get_typcache(ptr noundef %0, i32 noundef %1) #0 {
  %3 = alloca ptr, align 8
  %4 = alloca i32, align 4
  %5 = alloca ptr, align 8
  store ptr %0, ptr %3, align 8
  store i32 %1, ptr %4, align 4
  call void @llvm.lifetime.start.p0(i64 8, ptr %5) #9
  %6 = load ptr, ptr %3, align 8
  %7 = getelementptr inbounds nuw %struct.FunctionCallInfoBaseData, ptr %6, i32 0, i32 0
  %8 = load ptr, ptr %7, align 8
  %9 = getelementptr inbounds nuw %struct.FmgrInfo, ptr %8, i32 0, i32 6
  %10 = load ptr, ptr %9, align 8
  store ptr %10, ptr %5, align 8
  %11 = load ptr, ptr %5, align 8
  %12 = icmp eq ptr %11, null
  br i1 %12, label %19, label %13

13:                                               ; preds = %2
  %14 = load ptr, ptr %5, align 8
  %15 = getelementptr inbounds nuw %struct.TypeCacheEntry, ptr %14, i32 0, i32 0
  %16 = load i32, ptr %15, align 8
  %17 = load i32, ptr %4, align 4
  %18 = icmp ne i32 %16, %17
  br i1 %18, label %19, label %44

19:                                               ; preds = %13, %2
  %20 = load i32, ptr %4, align 4
  %21 = call ptr @lookup_type_cache(i32 noundef %20, i32 noundef 65536)
  store ptr %21, ptr %5, align 8
  %22 = load ptr, ptr %5, align 8
  %23 = getelementptr inbounds nuw %struct.TypeCacheEntry, ptr %22, i32 0, i32 33
  %24 = load ptr, ptr %23, align 8
  %25 = icmp eq ptr %24, null
  br i1 %25, label %26, label %38

26:                                               ; preds = %19
  br label %27

27:                                               ; preds = %26
  br i1 true, label %28, label %30

28:                                               ; preds = %27
  %29 = call zeroext i1 @errstart_cold(i32 noundef 21, ptr noundef null) #11
  br i1 %29, label %32, label %35

30:                                               ; preds = %27
  %31 = call zeroext i1 @errstart(i32 noundef 21, ptr noundef null)
  br i1 %31, label %32, label %35

32:                                               ; preds = %30, %28
  %33 = load i32, ptr %4, align 4
  %34 = call i32 (ptr, ...) @errmsg_internal(ptr noundef @.str.9, i32 noundef %33)
  call void @errfinish(ptr noundef @.str.2, i32 noundef 557, ptr noundef @__func__.multirange_get_typcache)
  br label %35

35:                                               ; preds = %32, %30, %28
  unreachable

36:                                               ; No predecessors!
  br label %37

37:                                               ; preds = %36
  br label %38

38:                                               ; preds = %37, %19
  %39 = load ptr, ptr %5, align 8
  %40 = load ptr, ptr %3, align 8
  %41 = getelementptr inbounds nuw %struct.FunctionCallInfoBaseData, ptr %40, i32 0, i32 0
  %42 = load ptr, ptr %41, align 8
  %43 = getelementptr inbounds nuw %struct.FmgrInfo, ptr %42, i32 0, i32 6
  store ptr %39, ptr %43, align 8
  br label %44

44:                                               ; preds = %38, %13
  %45 = load ptr, ptr %5, align 8
  call void @llvm.lifetime.end.p0(i64 8, ptr %5) #9
  ret ptr %45
}

; Function Attrs: inlinehint nounwind uwtable
define internal i64 @MultirangeTypePGetDatum(ptr noundef %0) #2 {
  %2 = alloca ptr, align 8
  store ptr %0, ptr %2, align 8
  %3 = load ptr, ptr %2, align 8
  %4 = call i64 @PointerGetDatum(ptr noundef %3)
  ret i64 %4
}

; Function Attrs: inlinehint nounwind uwtable
define internal ptr @DatumGetMultirangeTypeP(i64 noundef %0) #2 {
  %2 = alloca i64, align 8
  store i64 %0, ptr %2, align 8
  %3 = load i64, ptr %2, align 8
  %4 = call ptr @DatumGetPointer(i64 noundef %3)
  %5 = call ptr @pg_detoast_datum(ptr noundef %4)
  ret ptr %5
}

; Function Attrs: nounwind uwtable
define dso_local i64 @multirange_union(ptr noundef %0) #0 {
  %2 = alloca i64, align 8
  %3 = alloca ptr, align 8
  %4 = alloca ptr, align 8
  %5 = alloca ptr, align 8
  %6 = alloca ptr, align 8
  %7 = alloca i32, align 4
  %8 = alloca i32, align 4
  %9 = alloca i32, align 4
  %10 = alloca ptr, align 8
  %11 = alloca ptr, align 8
  %12 = alloca ptr, align 8
  %13 = alloca i32, align 4
  store ptr %0, ptr %3, align 8
  call void @llvm.lifetime.start.p0(i64 8, ptr %4) #9
  %14 = load ptr, ptr %3, align 8
  %15 = getelementptr inbounds nuw %struct.FunctionCallInfoBaseData, ptr %14, i32 0, i32 6
  %16 = getelementptr inbounds [0 x %struct.NullableDatum], ptr %15, i64 0, i64 0
  %17 = getelementptr inbounds nuw %struct.NullableDatum, ptr %16, i32 0, i32 0
  %18 = load i64, ptr %17, align 8
  %19 = call ptr @DatumGetMultirangeTypeP(i64 noundef %18)
  store ptr %19, ptr %4, align 8
  call void @llvm.lifetime.start.p0(i64 8, ptr %5) #9
  %20 = load ptr, ptr %3, align 8
  %21 = getelementptr inbounds nuw %struct.FunctionCallInfoBaseData, ptr %20, i32 0, i32 6
  %22 = getelementptr inbounds [0 x %struct.NullableDatum], ptr %21, i64 0, i64 1
  %23 = getelementptr inbounds nuw %struct.NullableDatum, ptr %22, i32 0, i32 0
  %24 = load i64, ptr %23, align 8
  %25 = call ptr @DatumGetMultirangeTypeP(i64 noundef %24)
  store ptr %25, ptr %5, align 8
  call void @llvm.lifetime.start.p0(i64 8, ptr %6) #9
  call void @llvm.lifetime.start.p0(i64 4, ptr %7) #9
  call void @llvm.lifetime.start.p0(i64 4, ptr %8) #9
  call void @llvm.lifetime.start.p0(i64 4, ptr %9) #9
  call void @llvm.lifetime.start.p0(i64 8, ptr %10) #9
  call void @llvm.lifetime.start.p0(i64 8, ptr %11) #9
  call void @llvm.lifetime.start.p0(i64 8, ptr %12) #9
  %26 = load ptr, ptr %4, align 8
  %27 = getelementptr inbounds nuw %struct.MultirangeType, ptr %26, i32 0, i32 2
  %28 = load i32, ptr %27, align 4
  %29 = icmp eq i32 %28, 0
  br i1 %29, label %30, label %33

30:                                               ; preds = %1
  %31 = load ptr, ptr %5, align 8
  %32 = call i64 @MultirangeTypePGetDatum(ptr noundef %31)
  store i64 %32, ptr %2, align 8
  store i32 1, ptr %13, align 4
  br label %85

33:                                               ; preds = %1
  %34 = load ptr, ptr %5, align 8
  %35 = getelementptr inbounds nuw %struct.MultirangeType, ptr %34, i32 0, i32 2
  %36 = load i32, ptr %35, align 4
  %37 = icmp eq i32 %36, 0
  br i1 %37, label %38, label %41

38:                                               ; preds = %33
  %39 = load ptr, ptr %4, align 8
  %40 = call i64 @MultirangeTypePGetDatum(ptr noundef %39)
  store i64 %40, ptr %2, align 8
  store i32 1, ptr %13, align 4
  br label %85

41:                                               ; preds = %33
  %42 = load ptr, ptr %3, align 8
  %43 = load ptr, ptr %4, align 8
  %44 = getelementptr inbounds nuw %struct.MultirangeType, ptr %43, i32 0, i32 1
  %45 = load i32, ptr %44, align 4
  %46 = call ptr @multirange_get_typcache(ptr noundef %42, i32 noundef %45)
  store ptr %46, ptr %6, align 8
  %47 = load ptr, ptr %6, align 8
  %48 = getelementptr inbounds nuw %struct.TypeCacheEntry, ptr %47, i32 0, i32 33
  %49 = load ptr, ptr %48, align 8
  %50 = load ptr, ptr %4, align 8
  call void @multirange_deserialize(ptr noundef %49, ptr noundef %50, ptr noundef %7, ptr noundef %10)
  %51 = load ptr, ptr %6, align 8
  %52 = getelementptr inbounds nuw %struct.TypeCacheEntry, ptr %51, i32 0, i32 33
  %53 = load ptr, ptr %52, align 8
  %54 = load ptr, ptr %5, align 8
  call void @multirange_deserialize(ptr noundef %53, ptr noundef %54, ptr noundef %8, ptr noundef %11)
  %55 = load i32, ptr %7, align 4
  %56 = load i32, ptr %8, align 4
  %57 = add i32 %55, %56
  store i32 %57, ptr %9, align 4
  %58 = load i32, ptr %9, align 4
  %59 = sext i32 %58 to i64
  %60 = mul i64 %59, 8
  %61 = call ptr @palloc0(i64 noundef %60)
  store ptr %61, ptr %12, align 8
  %62 = load ptr, ptr %12, align 8
  %63 = load ptr, ptr %10, align 8
  %64 = load i32, ptr %7, align 4
  %65 = sext i32 %64 to i64
  %66 = mul i64 %65, 8
  call void @llvm.memcpy.p0.p0.i64(ptr align 8 %62, ptr align 8 %63, i64 %66, i1 false)
  %67 = load ptr, ptr %12, align 8
  %68 = load i32, ptr %7, align 4
  %69 = sext i32 %68 to i64
  %70 = getelementptr inbounds ptr, ptr %67, i64 %69
  %71 = load ptr, ptr %11, align 8
  %72 = load i32, ptr %8, align 4
  %73 = sext i32 %72 to i64
  %74 = mul i64 %73, 8
  call void @llvm.memcpy.p0.p0.i64(ptr align 8 %70, ptr align 8 %71, i64 %74, i1 false)
  %75 = load ptr, ptr %6, align 8
  %76 = getelementptr inbounds nuw %struct.TypeCacheEntry, ptr %75, i32 0, i32 0
  %77 = load i32, ptr %76, align 8
  %78 = load ptr, ptr %6, align 8
  %79 = getelementptr inbounds nuw %struct.TypeCacheEntry, ptr %78, i32 0, i32 33
  %80 = load ptr, ptr %79, align 8
  %81 = load i32, ptr %9, align 4
  %82 = load ptr, ptr %12, align 8
  %83 = call ptr @make_multirange(i32 noundef %77, ptr noundef %80, i32 noundef %81, ptr noundef %82)
  %84 = call i64 @MultirangeTypePGetDatum(ptr noundef %83)
  store i64 %84, ptr %2, align 8
  store i32 1, ptr %13, align 4
  br label %85

85:                                               ; preds = %41, %38, %30
  call void @llvm.lifetime.end.p0(i64 8, ptr %12) #9
  call void @llvm.lifetime.end.p0(i64 8, ptr %11) #9
  call void @llvm.lifetime.end.p0(i64 8, ptr %10) #9
  call void @llvm.lifetime.end.p0(i64 4, ptr %9) #9
  call void @llvm.lifetime.end.p0(i64 4, ptr %8) #9
  call void @llvm.lifetime.end.p0(i64 4, ptr %7) #9
  call void @llvm.lifetime.end.p0(i64 8, ptr %6) #9
  call void @llvm.lifetime.end.p0(i64 8, ptr %5) #9
  call void @llvm.lifetime.end.p0(i64 8, ptr %4) #9
  %86 = load i64, ptr %2, align 8
  ret i64 %86
}