; Function Attrs: nounwind uwtable
define dso_local i64 @multirange_union(ptr noundef readonly captures(none) %0) local_unnamed_addr #0 {
  %2 = getelementptr inbounds nuw i8, ptr %0, i64 32
  %3 = load i64, ptr %2, align 8
  %4 = inttoptr i64 %3 to ptr
  %5 = tail call ptr @pg_detoast_datum(ptr noundef %4) #11
  %6 = getelementptr inbounds nuw i8, ptr %0, i64 48
  %7 = load i64, ptr %6, align 8
  %8 = inttoptr i64 %7 to ptr
  %9 = tail call ptr @pg_detoast_datum(ptr noundef %8) #11
  %10 = getelementptr inbounds nuw i8, ptr %5, i64 8
  %11 = load i32, ptr %10, align 4
  %12 = icmp eq i32 %11, 0
  br i1 %12, label %70, label %13

13:                                               ; preds = %1
  %14 = getelementptr inbounds nuw i8, ptr %9, i64 8
  %15 = load i32, ptr %14, align 4
  %16 = icmp eq i32 %15, 0
  br i1 %16, label %70, label %17

17:                                               ; preds = %13
  %18 = getelementptr inbounds nuw i8, ptr %5, i64 4
  %19 = load i32, ptr %18, align 4
  %20 = load ptr, ptr %0, align 8
  %21 = getelementptr inbounds nuw i8, ptr %20, i64 24
  %22 = load ptr, ptr %21, align 8
  %23 = icmp eq ptr %22, null
  br i1 %23, label %26, label %24

24:                                               ; preds = %17
  %25 = load i32, ptr %22, align 8
  %.not.i = icmp eq i32 %25, %19
  br i1 %.not.i, label %multirange_get_typcache.exit, label %26

26:                                               ; preds = %24, %17
  %27 = tail call ptr @lookup_type_cache(i32 noundef %19, i32 noundef 65536) #11
  %28 = getelementptr inbounds nuw i8, ptr %27, i64 440
  %29 = load ptr, ptr %28, align 8
  %30 = icmp eq ptr %29, null
  br i1 %30, label %31, label %34

31:                                               ; preds = %26
  %32 = tail call zeroext i1 @errstart_cold(i32 noundef 21, ptr noundef null) #13
  tail call void @llvm.assume(i1 %32)
  %33 = tail call i32 (ptr, ...) @errmsg_internal(ptr noundef nonnull @.str.9, i32 noundef %19) #11
  tail call void @errfinish(ptr noundef nonnull @.str.2, i32 noundef 557, ptr noundef nonnull @__func__.multirange_get_typcache) #11
  unreachable

34:                                               ; preds = %26
  %35 = load ptr, ptr %0, align 8
  %36 = getelementptr inbounds nuw i8, ptr %35, i64 24
  store ptr %27, ptr %36, align 8
  %.pre = load i32, ptr %10, align 4
  br label %multirange_get_typcache.exit

multirange_get_typcache.exit:                     ; preds = %24, %34
  %37 = phi i32 [ %.pre, %34 ], [ %11, %24 ]
  %.0.i = phi ptr [ %27, %34 ], [ %22, %24 ]
  %38 = getelementptr inbounds nuw i8, ptr %.0.i, i64 440
  %39 = load ptr, ptr %38, align 8
  %40 = icmp sgt i32 %37, 0
  br i1 %40, label %41, label %multirange_deserialize.exit

41:                                               ; preds = %multirange_get_typcache.exit
  %42 = zext nneg i32 %37 to i64
  %43 = shl nuw nsw i64 %42, 3
  %44 = tail call ptr @palloc(i64 noundef %43) #11
  br label %.lr.ph.i

.lr.ph.i:                                         ; preds = %41, %.lr.ph.i
  %indvars.iv.i = phi i64 [ %indvars.iv.next.i, %.lr.ph.i ], [ 0, %41 ]
  %45 = trunc nuw nsw i64 %indvars.iv.i to i32
  %46 = tail call ptr @multirange_get_range(ptr noundef readonly %39, ptr noundef %5, i32 noundef %45)
  %47 = getelementptr inbounds nuw ptr, ptr %44, i64 %indvars.iv.i
  store ptr %46, ptr %47, align 8
  %indvars.iv.next.i = add nuw nsw i64 %indvars.iv.i, 1
  %exitcond.not = icmp eq i64 %indvars.iv.next.i, %42
  br i1 %exitcond.not, label %multirange_deserialize.exit.loopexit, label %.lr.ph.i, !llvm.loop !11

multirange_deserialize.exit.loopexit:             ; preds = %.lr.ph.i
  %.pre37 = load ptr, ptr %38, align 8
  br label %multirange_deserialize.exit

multirange_deserialize.exit:                      ; preds = %multirange_deserialize.exit.loopexit, %multirange_get_typcache.exit
  %48 = phi ptr [ %39, %multirange_get_typcache.exit ], [ %.pre37, %multirange_deserialize.exit.loopexit ]
  %.035 = phi ptr [ null, %multirange_get_typcache.exit ], [ %44, %multirange_deserialize.exit.loopexit ]
  %49 = load i32, ptr %14, align 4
  %50 = icmp sgt i32 %49, 0
  br i1 %50, label %51, label %multirange_deserialize.exit22

51:                                               ; preds = %multirange_deserialize.exit
  %52 = zext nneg i32 %49 to i64
  %53 = shl nuw nsw i64 %52, 3
  %54 = tail call ptr @palloc(i64 noundef %53) #11
  br label %.lr.ph.i19

.lr.ph.i19:                                       ; preds = %51, %.lr.ph.i19
  %indvars.iv.i20 = phi i64 [ %indvars.iv.next.i21, %.lr.ph.i19 ], [ 0, %51 ]
  %55 = trunc nuw nsw i64 %indvars.iv.i20 to i32
  %56 = tail call ptr @multirange_get_range(ptr noundef readonly %48, ptr noundef %9, i32 noundef %55)
  %57 = getelementptr inbounds nuw ptr, ptr %54, i64 %indvars.iv.i20
  store ptr %56, ptr %57, align 8
  %indvars.iv.next.i21 = add nuw nsw i64 %indvars.iv.i20, 1
  %exitcond36.not = icmp eq i64 %indvars.iv.next.i21, %52
  br i1 %exitcond36.not, label %multirange_deserialize.exit22, label %.lr.ph.i19, !llvm.loop !11

multirange_deserialize.exit22:                    ; preds = %.lr.ph.i19, %multirange_deserialize.exit
  %.034 = phi ptr [ null, %multirange_deserialize.exit ], [ %54, %.lr.ph.i19 ]
  %58 = add i32 %49, %37
  %59 = sext i32 %58 to i64
  %60 = shl nsw i64 %59, 3
  %61 = tail call ptr @palloc0(i64 noundef %60) #11
  %62 = sext i32 %37 to i64
  %63 = shl nsw i64 %62, 3
  tail call void @llvm.memcpy.p0.p0.i64(ptr align 8 %61, ptr align 8 %.035, i64 %63, i1 false)
  %64 = getelementptr inbounds ptr, ptr %61, i64 %62
  %65 = sext i32 %49 to i64
  %66 = shl nsw i64 %65, 3
  tail call void @llvm.memcpy.p0.p0.i64(ptr align 8 %64, ptr align 8 %.034, i64 %66, i1 false)
  %67 = load i32, ptr %.0.i, align 8
  %68 = load ptr, ptr %38, align 8
  %69 = tail call ptr @make_multirange(i32 noundef %67, ptr noundef %68, i32 noundef %58, ptr noundef %61)
  br label %70

70:                                               ; preds = %13, %1, %multirange_deserialize.exit22
  %.0.in = phi ptr [ %69, %multirange_deserialize.exit22 ], [ %9, %1 ], [ %5, %13 ]
  %.0 = ptrtoint ptr %.0.in to i64
  ret i64 %.0
}